target datalayout = "e-m:e-p270:32:32-p271:32:32-p272:64:64-i64:64-i128:128-f80:128-n8:16:32:64-S128"
target triple = "x86_64-unknown-linux-gnu"

%struct.SCSISense = type { i8, i8, i8 }
%struct.SCSIDiskState = type { %struct.SCSIDevice, i32, i8, i8, i8, i16, i64, i64, i32, ptr, ptr, ptr, ptr, ptr, ptr, i8, i8, i16 }
%struct.SCSIDevice = type { %struct.DeviceState, ptr, ptr, i32, %struct.BlockConf, %struct.SCSISense, i8, [252 x i8], i32, %union.anon, i32, i32, i32, i32, i64, i64, i64, i32, i32, i32, i8, i8 }
%struct.DeviceState = type { %struct.Object, ptr, ptr, i8, i8, i64, ptr, i32, i8, ptr, %struct.NamedGPIOListHead, %struct.NamedClockListHead, %struct.BusStateHead, i32, i32, i32, %struct.ResettableState, ptr, %struct.MemReentrancyGuard }
%struct.Object = type { ptr, ptr, ptr, i32, ptr }
%struct.NamedGPIOListHead = type { ptr }
%struct.NamedClockListHead = type { ptr }
%struct.BusStateHead = type { ptr }
%struct.ResettableState = type { i32, i8, i8 }
%struct.MemReentrancyGuard = type { i8 }
%struct.BlockConf = type { ptr, i32, i32, i32, i32, i32, i32, i32, i32, i32, i32, i32, i32, i32, i32, i8, i32, i32, i32, i32 }
%union.anon = type { %struct.QTailQLink }
%struct.QTailQLink = type { ptr, ptr }
%struct.SCSIDiskReq = type { %struct.SCSIRequest, i64, i32, i32, i8, i8, %struct.iovec, %struct.QEMUIOVector, %struct.BlockAcctCookie }
%struct.SCSIRequest = type { ptr, ptr, ptr, i32, i32, i32, i16, i16, ptr, i64, %struct.SCSICommand, %struct.NotifierList, [252 x i8], i32, i8, i8, i8, i8, ptr, ptr, %union.anon.0 }
%struct.SCSICommand = type { [16 x i8], i32, i64, i64, i32 }
%struct.NotifierList = type { %struct.anon }
%struct.anon = type { ptr }
%union.anon.0 = type { %struct.QTailQLink }
%struct.iovec = type { ptr, i64 }
%struct.QEMUIOVector = type { ptr, i32, %union.anon.1 }
%union.anon.1 = type { %struct.anon.2 }
%struct.anon.2 = type { i32, %struct.iovec }
%struct.BlockAcctCookie = type { i64, i64, i32 }
%struct.UnmapCBData = type { ptr, ptr, i32 }

@.str.5 = private unnamed_addr constant [28 x i8] c"../qemu/hw/scsi/scsi-disk.c\00", align 1
@.str.31 = private unnamed_addr constant [21 x i8] c"r->req.aiocb != NULL\00", align 1
@__PRETTY_FUNCTION__.scsi_unmap_complete = private unnamed_addr constant [38 x i8] c"void scsi_unmap_complete(void *, int)\00", align 1

; Function Attrs: nounwind sspstrong uwtable
define internal zeroext i1 @scsi_disk_req_check_error(ptr noundef %r, i32 noundef %ret, i1 noundef zeroext %acct_failed) #0 {
entry:
  %retval = alloca i1, align 1
  %r.addr = alloca ptr, align 8
  %ret.addr = alloca i32, align 4
  %acct_failed.addr = alloca i8, align 1
  store ptr %r, ptr %r.addr, align 8
  store i32 %ret, ptr %ret.addr, align 4
  %frombool = zext i1 %acct_failed to i8
  store i8 %frombool, ptr %acct_failed.addr, align 1
  %0 = load ptr, ptr %r.addr, align 8
  %req = getelementptr inbounds %struct.SCSIDiskReq, ptr %0, i32 0, i32 0
  %io_canceled = getelementptr inbounds %struct.SCSIRequest, ptr %req, i32 0, i32 15
  %1 = load i8, ptr %io_canceled, align 1
  %tobool = trunc i8 %1 to i1
  br i1 %tobool, label %if.then, label %if.end

if.then:                                          ; preds = %entry
  %2 = load ptr, ptr %r.addr, align 8
  %req1 = getelementptr inbounds %struct.SCSIDiskReq, ptr %2, i32 0, i32 0
  call void @scsi_req_cancel_complete(ptr noundef %req1)
  store i1 true, ptr %retval, align 1
  br label %return

if.end:                                           ; preds = %entry
  %3 = load i32, ptr %ret.addr, align 4
  %cmp = icmp slt i32 %3, 0
  br i1 %cmp, label %if.then2, label %if.end4

if.then2:                                         ; preds = %if.end
  %4 = load ptr, ptr %r.addr, align 8
  %5 = load i32, ptr %ret.addr, align 4
  %6 = load i8, ptr %acct_failed.addr, align 1
  %tobool3 = trunc i8 %6 to i1
  %call = call zeroext i1 @scsi_handle_rw_error(ptr noundef %4, i32 noundef %5, i1 noundef zeroext %tobool3)
  store i1 %call, ptr %retval, align 1
  br label %return

if.end4:                                          ; preds = %if.end
  store i1 false, ptr %retval, align 1
  br label %return

return:                                           ; preds = %if.end4, %if.then2, %if.then
  %7 = load i1, ptr %retval, align 1
  ret i1 %7
}

; Function Attrs: nounwind sspstrong uwtable
define internal void @scsi_unmap_complete(ptr noundef %opaque, i32 noundef %ret) #0 {
entry:
  %opaque.addr = alloca ptr, align 8
  %ret.addr = alloca i32, align 4
  %data = alloca ptr, align 8
  %r = alloca ptr, align 8
  %s = alloca ptr, align 8
  %tmp = alloca ptr, align 8
  %__mptr = alloca ptr, align 8
  %tmp2 = alloca ptr, align 8
  store ptr %opaque, ptr %opaque.addr, align 8
  store i32 %ret, ptr %ret.addr, align 4
  %0 = load ptr, ptr %opaque.addr, align 8
  store ptr %0, ptr %data, align 8
  %1 = load ptr, ptr %data, align 8
  %r1 = getelementptr inbounds %struct.UnmapCBData, ptr %1, i32 0, i32 0
  %2 = load ptr, ptr %r1, align 8
  store ptr %2, ptr %r, align 8
  %3 = load ptr, ptr %r, align 8
  %req = getelementptr inbounds %struct.SCSIDiskReq, ptr %3, i32 0, i32 0
  %dev = getelementptr inbounds %struct.SCSIRequest, ptr %req, i32 0, i32 1
  %4 = load ptr, ptr %dev, align 8
  store ptr %4, ptr %__mptr, align 8
  %5 = load ptr, ptr %__mptr, align 8
  %add.ptr = getelementptr i8, ptr %5, i64 0
  store ptr %add.ptr, ptr %tmp2, align 8
  %6 = load ptr, ptr %tmp2, align 8
  store ptr %6, ptr %tmp, align 8
  %7 = load ptr, ptr %tmp, align 8
  store ptr %7, ptr %s, align 8
  %8 = load ptr, ptr %s, align 8
  %qdev = getelementptr inbounds %struct.SCSIDiskState, ptr %8, i32 0, i32 0
  %conf = getelementptr inbounds %struct.SCSIDevice, ptr %qdev, i32 0, i32 4
  %blk = getelementptr inbounds %struct.BlockConf, ptr %conf, i32 0, i32 0
  %9 = load ptr, ptr %blk, align 8
  %call = call ptr @blk_get_aio_context(ptr noundef %9)
  call void @aio_context_acquire(ptr noundef %call)
  %10 = load ptr, ptr %r, align 8
  %req3 = getelementptr inbounds %struct.SCSIDiskReq, ptr %10, i32 0, i32 0
  %aiocb = getelementptr inbounds %struct.SCSIRequest, ptr %req3, i32 0, i32 18
  %11 = load ptr, ptr %aiocb, align 8
  %cmp = icmp ne ptr %11, null
  br i1 %cmp, label %if.then, label %if.else

if.then:                                          ; preds = %entry
  br label %if.end

if.else:                                          ; preds = %entry
  call void @__assert_fail(ptr noundef @.str.31, ptr noundef @.str.5, i32 noundef 1747, ptr noundef @__PRETTY_FUNCTION__.scsi_unmap_complete) #11
  unreachable

if.end:                                           ; preds = %if.then
  %12 = load ptr, ptr %r, align 8
  %req4 = getelementptr inbounds %struct.SCSIDiskReq, ptr %12, i32 0, i32 0
  %aiocb5 = getelementptr inbounds %struct.SCSIRequest, ptr %req4, i32 0, i32 18
  store ptr null, ptr %aiocb5, align 8
  %13 = load ptr, ptr %r, align 8
  %14 = load i32, ptr %ret.addr, align 4
  %call6 = call zeroext i1 @scsi_disk_req_check_error(ptr noundef %13, i32 noundef %14, i1 noundef zeroext true)
  br i1 %call6, label %if.then7, label %if.else9

if.then7:                                         ; preds = %if.end
  %15 = load ptr, ptr %r, align 8
  %req8 = getelementptr inbounds %struct.SCSIDiskReq, ptr %15, i32 0, i32 0
  call void @scsi_req_unref(ptr noundef %req8)
  %16 = load ptr, ptr %data, align 8
  call void @g_free(ptr noundef %16)
  br label %if.end14

if.else9:                                         ; preds = %if.end
  %17 = load ptr, ptr %s, align 8
  %qdev10 = getelementptr inbounds %struct.SCSIDiskState, ptr %17, i32 0, i32 0
  %conf11 = getelementptr inbounds %struct.SCSIDevice, ptr %qdev10, i32 0, i32 4
  %blk12 = getelementptr inbounds %struct.BlockConf, ptr %conf11, i32 0, i32 0
  %18 = load ptr, ptr %blk12, align 8
  %call13 = call ptr @blk_get_stats(ptr noundef %18)
  %19 = load ptr, ptr %r, align 8
  %acct = getelementptr inbounds %struct.SCSIDiskReq, ptr %19, i32 0, i32 8
  call void @block_acct_done(ptr noundef %call13, ptr noundef %acct)
  %20 = load ptr, ptr %data, align 8
  %21 = load i32, ptr %ret.addr, align 4
  call void @scsi_unmap_complete_noio(ptr noundef %20, i32 noundef %21)
  br label %if.end14

if.end14:                                         ; preds = %if.else9, %if.then7
  %22 = load ptr, ptr %s, align 8
  %qdev15 = getelementptr inbounds %struct.SCSIDiskState, ptr %22, i32 0, i32 0
  %conf16 = getelementptr inbounds %struct.SCSIDevice, ptr %qdev15, i32 0, i32 4
  %blk17 = getelementptr inbounds %struct.BlockConf, ptr %conf16, i32 0, i32 0
  %23 = load ptr, ptr %blk17, align 8
  %call18 = call ptr @blk_get_aio_context(ptr noundef %23)
  call void @aio_context_release(ptr noundef %call18)
  ret void
}