; Function Attrs: nounwind sspstrong uwtable
define internal void @scsi_unmap_complete(ptr noundef %opaque, i32 noundef %ret) #0 {
entry:
  %0 = load ptr, ptr %opaque, align 8
  %dev = getelementptr inbounds nuw i8, ptr %0, i64 8
  %1 = load ptr, ptr %dev, align 8
  %conf = getelementptr inbounds nuw i8, ptr %1, i64 184
  %2 = load ptr, ptr %conf, align 8
  %call = tail call ptr @blk_get_aio_context(ptr noundef %2) #18
  tail call void @aio_context_acquire(ptr noundef %call) #18
  %aiocb = getelementptr inbounds nuw i8, ptr %0, i64 376
  %3 = load ptr, ptr %aiocb, align 8
  %cmp.not = icmp eq ptr %3, null
  br i1 %cmp.not, label %if.else, label %if.end

if.else:                                          ; preds = %entry
  tail call void @__assert_fail(ptr noundef nonnull @.str.31, ptr noundef nonnull @.str.5, i32 noundef 1747, ptr noundef nonnull @__PRETTY_FUNCTION__.scsi_unmap_complete) #19
  unreachable

if.end:                                           ; preds = %entry
  store ptr null, ptr %aiocb, align 8
  %io_canceled.i = getelementptr inbounds nuw i8, ptr %0, i64 369
  %4 = load i8, ptr %io_canceled.i, align 1
  %tobool.i = trunc i8 %4 to i1
  br i1 %tobool.i, label %scsi_disk_req_check_error.exit.thread, label %if.end.i

scsi_disk_req_check_error.exit.thread:            ; preds = %if.end
  tail call void @scsi_req_cancel_complete(ptr noundef nonnull %0) #18
  br label %if.then7

if.end.i:                                         ; preds = %if.end
  %cmp.i = icmp slt i32 %ret, 0
  br i1 %cmp.i, label %scsi_disk_req_check_error.exit, label %if.else9

scsi_disk_req_check_error.exit:                   ; preds = %if.end.i
  %call.i = tail call fastcc zeroext i1 @scsi_handle_rw_error(ptr noundef nonnull %0, i32 noundef %ret, i1 noundef zeroext true)
  br i1 %call.i, label %if.then7, label %if.else9

if.then7:                                         ; preds = %scsi_disk_req_check_error.exit.thread, %scsi_disk_req_check_error.exit
  tail call void @scsi_req_unref(ptr noundef nonnull %0) #18
  tail call void @g_free(ptr noundef nonnull %opaque) #18
  br label %if.end14

if.else9:                                         ; preds = %if.end.i, %scsi_disk_req_check_error.exit
  %5 = load ptr, ptr %conf, align 8
  %call13 = tail call ptr @blk_get_stats(ptr noundef %5) #18
  %acct = getelementptr inbounds nuw i8, ptr %0, i64 488
  tail call void @block_acct_done(ptr noundef %call13, ptr noundef nonnull %acct) #18
  tail call fastcc void @scsi_unmap_complete_noio(ptr noundef nonnull %opaque)
  br label %if.end14

if.end14:                                         ; preds = %if.else9, %if.then7
  %6 = load ptr, ptr %conf, align 8
  %call18 = tail call ptr @blk_get_aio_context(ptr noundef %6) #18
  tail call void @aio_context_release(ptr noundef %call18) #18
  ret void
}